; Function Attrs: cold nounwind optsize uwtable
define void @ff_tx_init_tabs_double(i32 noundef %0) local_unnamed_addr #0 {
  %2 = sub i32 0, %0
  %3 = and i32 %0, %2
  %4 = mul i32 %3, 125613361
  %5 = tail call range(i32 0, 33) i32 @llvm.cttz.i32(i32 %0, i1 true)
  %6 = icmp eq i32 %0, 0
  %7 = select i1 %6, i32 0, i32 %5
  %.not = icmp ult i32 %4, 134217728
  br i1 %.not, label %15, label %8

8:                                                ; preds = %1
  %.not3239 = icmp samesign ult i32 %7, 3
  br i1 %.not3239, label %._crit_edge, label %.lr.ph.preheader

.lr.ph.preheader:                                 ; preds = %8
  %9 = add nsw i32 %7, -2
  %wide.trip.count = zext nneg i32 %9 to i64
  br label %.lr.ph

._crit_edge:                                      ; preds = %.lr.ph, %8
  %10 = ashr i32 %0, %7
  br label %15

.lr.ph:                                           ; preds = %.lr.ph.preheader, %.lr.ph
  %indvars.iv = phi i64 [ 0, %.lr.ph.preheader ], [ %indvars.iv.next, %.lr.ph ]
  %11 = getelementptr inbounds nuw [19 x i32], ptr @sr_tabs_init_once, i64 0, i64 %indvars.iv
  %12 = getelementptr inbounds nuw [19 x ptr], ptr @sr_tabs_init_funcs, i64 0, i64 %indvars.iv
  %13 = load ptr, ptr %12, align 8, !tbaa !4
  %14 = tail call i32 @pthread_once(ptr noundef nonnull %11, ptr noundef %13) #16
  %indvars.iv.next = add nuw nsw i64 %indvars.iv, 1
  %exitcond.not = icmp eq i64 %indvars.iv.next, %wide.trip.count
  br i1 %exitcond.not, label %._crit_edge, label %.lr.ph, !llvm.loop !8

15:                                               ; preds = %._crit_edge, %1
  %.024 = phi i32 [ %10, %._crit_edge ], [ %0, %1 ]
  %16 = icmp sgt i32 %.024, 1
  br i1 %16, label %.preheader, label %.thread

.preheader:                                       ; preds = %15, %.loopexit
  %indvars.iv48 = phi i64 [ %indvars.iv.next49, %.loopexit ], [ 0, %15 ]
  %.142 = phi i32 [ %.2, %.loopexit ], [ %.024, %15 ]
  %17 = getelementptr inbounds nuw [3 x %struct.FFTabInitData], ptr @nptwo_tabs_init_data, i64 0, i64 %indvars.iv48
  %18 = getelementptr inbounds nuw i8, ptr %17, i64 8
  br label %19

19:                                               ; preds = %.preheader, %22
  %indvars.iv45 = phi i64 [ 0, %.preheader ], [ %indvars.iv.next46, %22 ]
  %20 = getelementptr inbounds nuw [4 x i32], ptr %18, i64 0, i64 %indvars.iv45
  %21 = load i32, ptr %20, align 4, !tbaa !10
  %.not33 = icmp eq i32 %21, 0
  br i1 %.not33, label %.loopexit, label %22

22:                                               ; preds = %19
  %indvars.iv.next46 = add nuw nsw i64 %indvars.iv45, 1
  %23 = srem i32 %21, %.142
  %.not34 = icmp eq i32 %23, 0
  br i1 %.not34, label %24, label %19, !llvm.loop !12

24:                                               ; preds = %22
  %25 = getelementptr inbounds nuw [3 x i32], ptr @nptwo_tabs_init_once, i64 0, i64 %indvars.iv48
  %26 = load ptr, ptr %17, align 8, !tbaa !13
  %27 = tail call i32 @pthread_once(ptr noundef nonnull %25, ptr noundef %26) #16
  %28 = sdiv i32 %.142, %21
  br label %.loopexit

.loopexit:                                        ; preds = %19, %24
  %.2 = phi i32 [ %28, %24 ], [ %.142, %19 ]
  %indvars.iv.next49 = add nuw nsw i64 %indvars.iv48, 1
  %29 = icmp samesign ult i64 %indvars.iv48, 2
  %30 = icmp sgt i32 %.2, 1
  %or.cond = select i1 %29, i1 %30, i1 false
  br i1 %or.cond, label %.preheader, label %.thread, !llvm.loop !15

.thread:                                          ; preds = %.loopexit, %15
  ret void
}